target datalayout = "e-m:e-p270:32:32-p271:32:32-p272:64:64-i64:64-i128:128-f80:128-n8:16:32:64-S128"
target triple = "x86_64-pc-linux-gnu"

%struct.JNINativeInterface_ = type { ptr, ptr, ptr, ptr, ptr, ptr, ptr, ptr, ptr, ptr, ptr, ptr, ptr, ptr, ptr, ptr, ptr, ptr, ptr, ptr, ptr, ptr, ptr, ptr, ptr, ptr, ptr, ptr, ptr, ptr, ptr, ptr, ptr, ptr, ptr, ptr, ptr, ptr, ptr, ptr, ptr, ptr, ptr, ptr, ptr, ptr, ptr, ptr, ptr, ptr, ptr, ptr, ptr, ptr, ptr, ptr, ptr, ptr, ptr, ptr, ptr, ptr, ptr, ptr, ptr, ptr, ptr, ptr, ptr, ptr, ptr, ptr, ptr, ptr, ptr, ptr, ptr, ptr, ptr, ptr, ptr, ptr, ptr, ptr, ptr, ptr, ptr, ptr, ptr, ptr, ptr, ptr, ptr, ptr, ptr, ptr, ptr, ptr, ptr, ptr, ptr, ptr, ptr, ptr, ptr, ptr, ptr, ptr, ptr, ptr, ptr, ptr, ptr, ptr, ptr, ptr, ptr, ptr, ptr, ptr, ptr, ptr, ptr, ptr, ptr, ptr, ptr, ptr, ptr, ptr, ptr, ptr, ptr, ptr, ptr, ptr, ptr, ptr, ptr, ptr, ptr, ptr, ptr, ptr, ptr, ptr, ptr, ptr, ptr, ptr, ptr, ptr, ptr, ptr, ptr, ptr, ptr, ptr, ptr, ptr, ptr, ptr, ptr, ptr, ptr, ptr, ptr, ptr, ptr, ptr, ptr, ptr, ptr, ptr, ptr, ptr, ptr, ptr, ptr, ptr, ptr, ptr, ptr, ptr, ptr, ptr, ptr, ptr, ptr, ptr, ptr, ptr, ptr, ptr, ptr, ptr, ptr, ptr, ptr, ptr, ptr, ptr, ptr, ptr, ptr, ptr, ptr, ptr, ptr, ptr, ptr, ptr, ptr, ptr, ptr, ptr, ptr, ptr, ptr, ptr, ptr, ptr, ptr, ptr, ptr, ptr, ptr, ptr, ptr, ptr, ptr, ptr, ptr, ptr, ptr }
%struct.CK_FUNCTION_LIST = type { %struct.CK_VERSION, ptr, ptr, ptr, ptr, ptr, ptr, ptr, ptr, ptr, ptr, ptr, ptr, ptr, ptr, ptr, ptr, ptr, ptr, ptr, ptr, ptr, ptr, ptr, ptr, ptr, ptr, ptr, ptr, ptr, ptr, ptr, ptr, ptr, ptr, ptr, ptr, ptr, ptr, ptr, ptr, ptr, ptr, ptr, ptr, ptr, ptr, ptr, ptr, ptr, ptr, ptr, ptr, ptr, ptr, ptr, ptr, ptr, ptr, ptr, ptr, ptr, ptr, ptr, ptr, ptr, ptr, ptr, ptr }
%struct.CK_VERSION = type { i8, i8 }

; Function Attrs: nounwind uwtable
define void @Java_sun_security_pkcs11_wrapper_PKCS11_C_1SignRecoverInit(ptr noundef %0, ptr noundef %1, i64 noundef %2, ptr noundef %3, i64 noundef %4) #0 {
  %6 = alloca ptr, align 8
  %7 = alloca ptr, align 8
  %8 = alloca i64, align 8
  %9 = alloca ptr, align 8
  %10 = alloca i64, align 8
  %11 = alloca i64, align 8
  %12 = alloca ptr, align 8
  %13 = alloca i64, align 8
  %14 = alloca i64, align 8
  %15 = alloca ptr, align 8
  store ptr %0, ptr %6, align 8
  store ptr %1, ptr %7, align 8
  store i64 %2, ptr %8, align 8
  store ptr %3, ptr %9, align 8
  store i64 %4, ptr %10, align 8
  store ptr null, ptr %12, align 8
  %16 = load ptr, ptr %6, align 8
  %17 = load ptr, ptr %7, align 8
  %18 = call ptr @getFunctionList(ptr noundef %16, ptr noundef %17)
  store ptr %18, ptr %15, align 8
  %19 = load ptr, ptr %15, align 8
  %20 = icmp eq ptr %19, null
  br i1 %20, label %21, label %22

21:                                               ; preds = %5
  br label %50

22:                                               ; preds = %5
  %23 = load i64, ptr %8, align 8
  store i64 %23, ptr %11, align 8
  %24 = load ptr, ptr %6, align 8
  %25 = load ptr, ptr %9, align 8
  %26 = call ptr @jMechanismToCKMechanismPtr(ptr noundef %24, ptr noundef %25)
  store ptr %26, ptr %12, align 8
  %27 = load ptr, ptr %6, align 8
  %28 = load ptr, ptr %27, align 8
  %29 = getelementptr inbounds %struct.JNINativeInterface_, ptr %28, i32 0, i32 228
  %30 = load ptr, ptr %29, align 8
  %31 = load ptr, ptr %6, align 8
  %32 = call zeroext i8 %30(ptr noundef %31)
  %33 = icmp ne i8 %32, 0
  br i1 %33, label %34, label %35

34:                                               ; preds = %22
  br label %50

35:                                               ; preds = %22
  %36 = load i64, ptr %10, align 8
  store i64 %36, ptr %13, align 8
  %37 = load ptr, ptr %15, align 8
  %38 = getelementptr inbounds %struct.CK_FUNCTION_LIST, ptr %37, i32 0, i32 47
  %39 = load ptr, ptr %38, align 8
  %40 = load i64, ptr %11, align 8
  %41 = load ptr, ptr %12, align 8
  %42 = load i64, ptr %13, align 8
  %43 = call i64 %39(i64 noundef %40, ptr noundef %41, i64 noundef %42)
  store i64 %43, ptr %14, align 8
  %44 = load ptr, ptr %12, align 8
  call void @freeCKMechanismPtr(ptr noundef %44)
  %45 = load ptr, ptr %6, align 8
  %46 = load i64, ptr %14, align 8
  %47 = call i64 @ckAssertReturnValueOK(ptr noundef %45, i64 noundef %46)
  %48 = icmp ne i64 %47, 0
  br i1 %48, label %49, label %50

49:                                               ; preds = %35
  br label %50

50:                                               ; preds = %49, %35, %34, %21
  ret void
}