; Function Attrs: nounwind uwtable
define void @Java_sun_security_pkcs11_wrapper_PKCS11_C_1SignRecoverInit(ptr noundef %0, ptr noundef %1, i64 noundef %2, ptr noundef %3, i64 noundef %4) local_unnamed_addr #0 {
  %6 = tail call ptr @getFunctionList(ptr noundef %0, ptr noundef %1) #5
  %7 = icmp eq ptr %6, null
  br i1 %7, label %19, label %8

8:                                                ; preds = %5
  %9 = tail call ptr @jMechanismToCKMechanismPtr(ptr noundef %0, ptr noundef %3) #5
  %10 = load ptr, ptr %0, align 8
  %11 = getelementptr inbounds i8, ptr %10, i64 1824
  %12 = load ptr, ptr %11, align 8
  %13 = tail call zeroext i8 %12(ptr noundef nonnull %0) #5
  %.not = icmp eq i8 %13, 0
  br i1 %.not, label %14, label %19

14:                                               ; preds = %8
  %15 = getelementptr inbounds i8, ptr %6, i64 376
  %16 = load ptr, ptr %15, align 8
  %17 = tail call i64 %16(i64 noundef %2, ptr noundef %9, i64 noundef %4) #5
  tail call void @freeCKMechanismPtr(ptr noundef %9) #5
  %18 = tail call i64 @ckAssertReturnValueOK(ptr noundef nonnull %0, i64 noundef %17) #5
  br label %19

19:                                               ; preds = %14, %8, %5
  ret void
}